target datalayout = "e-m:e-p270:32:32-p271:32:32-p272:64:64-i64:64-i128:128-f80:128-n8:16:32:64-S128"
target triple = "x86_64-unknown-linux-gnu"

module asm ".section\09\22.initcall5.init\22, \22a\22\09\09"
module asm "__initcall__kmod_proc__331_37_proc_loadavg_init5:\09\09\09"
module asm ".long\09proc_loadavg_init - .\09"
module asm ".previous\09\09\09\09\09"

%struct.pcpu_hot = type { %union.anon.2 }
%union.anon.2 = type { %struct.anon.3, [16 x i8] }
%struct.anon.3 = type { ptr, i32, i32, i64, i64, ptr, i16, i8 }

@__UNIQUE_ID___addressable_proc_loadavg_init332 = internal global ptr @proc_loadavg_init, section ".discard.addressable", align 8
@.str = private unnamed_addr constant [8 x i8] c"loadavg\00", align 1
@.str.1 = private unnamed_addr constant [40 x i8] c"%lu.%02lu %lu.%02lu %lu.%02lu %u/%d %d\0A\00", align 1
@nr_threads = external dso_local local_unnamed_addr global i32, align 4
@pcpu_hot = external dso_local global %struct.pcpu_hot, section ".data..percpu..shared_aligned", align 64
@llvm.compiler.used = appending global [1 x ptr] [ptr @__UNIQUE_ID___addressable_proc_loadavg_init332], section "llvm.metadata"

; Function Attrs: cold fn_ret_thunk_extern nounwind null_pointer_is_valid optsize
define internal noundef i32 @proc_loadavg_init() #0 section ".init.text" align 16 {
  %1 = tail call ptr @proc_create_single_data(ptr noundef nonnull @.str, i16 noundef zeroext 0, ptr noundef null, ptr noundef nonnull @loadavg_proc_show, ptr noundef null) #5
  %2 = getelementptr inbounds i8, ptr %1, i64 170
  %3 = load i8, ptr %2, align 2
  %4 = or i8 %3, 1
  store i8 %4, ptr %2, align 2
  ret i32 0
}

; Function Attrs: nocallback nofree nosync nounwind willreturn memory(argmem: readwrite)
declare void @llvm.lifetime.start.p0(i64 immarg, ptr nocapture) #1

; Function Attrs: null_pointer_is_valid
declare dso_local ptr @proc_create_single_data(ptr noundef, i16 noundef zeroext, ptr noundef, ptr noundef, ptr noundef) local_unnamed_addr #2

; Function Attrs: fn_ret_thunk_extern nounwind null_pointer_is_valid
define internal noundef i32 @loadavg_proc_show(ptr noundef %0, ptr nocapture readnone %1) #3 align 16 {
  %3 = alloca [3 x i64], align 16
  call void @llvm.lifetime.start.p0(i64 24, ptr nonnull %3) #5
  call void @llvm.memset.p0.i64(ptr noundef nonnull align 16 dereferenceable(24) %3, i8 0, i64 24, i1 false), !annotation !5
  call void @get_avenrun(ptr noundef nonnull %3, i64 noundef 10, i32 noundef 0) #5
  %4 = load i64, ptr %3, align 16
  %5 = lshr i64 %4, 11
  %6 = and i64 %4, 2047
  %7 = mul nuw nsw i64 %6, 100
  %8 = lshr i64 %7, 11
  %9 = getelementptr inbounds i8, ptr %3, i64 8
  %10 = load i64, ptr %9, align 8
  %11 = lshr i64 %10, 11
  %12 = and i64 %10, 2047
  %13 = mul nuw nsw i64 %12, 100
  %14 = lshr i64 %13, 11
  %15 = getelementptr inbounds i8, ptr %3, i64 16
  %16 = load i64, ptr %15, align 16
  %17 = lshr i64 %16, 11
  %18 = and i64 %16, 2047
  %19 = mul nuw nsw i64 %18, 100
  %20 = lshr i64 %19, 11
  %21 = call i32 @nr_running() #5
  %22 = load i32, ptr @nr_threads, align 4
  %23 = call i64 asm "movq %gs:${1:P}, $0", "=r,p,~{dirflag},~{fpsr},~{flags}"(ptr nonnull @pcpu_hot) #6, !srcloc !6
  %24 = inttoptr i64 %23 to ptr
  %25 = call ptr @task_active_pid_ns(ptr noundef %24) #5
  %26 = getelementptr inbounds i8, ptr %25, i64 20
  %27 = load volatile i32, ptr %26, align 4
  %28 = add i32 %27, -1
  call void (ptr, ptr, ...) @seq_printf(ptr noundef %0, ptr noundef nonnull @.str.1, i64 noundef %5, i64 noundef %8, i64 noundef %11, i64 noundef %14, i64 noundef %17, i64 noundef %20, i32 noundef %21, i32 noundef %22, i32 noundef %28) #5
  call void @llvm.lifetime.end.p0(i64 24, ptr nonnull %3) #5
  ret i32 0
}

; Function Attrs: nocallback nofree nosync nounwind willreturn memory(argmem: readwrite)
declare void @llvm.lifetime.end.p0(i64 immarg, ptr nocapture) #1

; Function Attrs: nocallback nofree nounwind willreturn memory(argmem: write)
declare void @llvm.memset.p0.i64(ptr nocapture writeonly, i8, i64, i1 immarg) #4

; Function Attrs: null_pointer_is_valid
declare dso_local void @get_avenrun(ptr noundef, i64 noundef, i32 noundef) local_unnamed_addr #2

; Function Attrs: null_pointer_is_valid
declare dso_local void @seq_printf(ptr noundef, ptr noundef, ...) local_unnamed_addr #2

; Function Attrs: null_pointer_is_valid
declare dso_local i32 @nr_running() local_unnamed_addr #2

; Function Attrs: null_pointer_is_valid
declare dso_local ptr @task_active_pid_ns(ptr noundef) local_unnamed_addr #2


!llvm.module.flags = !{!0, !1, !2, !3, !4}

!0 = !{i32 1, !"wchar_size", i32 2}
!1 = !{i32 8, !"cf-protection-branch", i32 1}
!2 = !{i32 4, !"function_return_thunk_extern", i32 1}
!3 = !{i32 4, !"indirect_branch_cs_prefix", i32 1}
!4 = !{i32 4, !"SkipRaxSetup", i32 1}
!5 = !{!"auto-init"}
!6 = !{i64 2148123083}
